target datalayout = "e-m:e-p270:32:32-p271:32:32-p272:64:64-i64:64-i128:128-f80:128-n8:16:32:64-S128"
target triple = "x86_64-pc-linux-gnu"

%struct.CONF_VALUE = type { ptr, ptr, ptr }
%struct.v3_ext_ctx = type { i32, ptr, ptr, ptr, ptr, ptr, ptr, ptr }

@.str.15 = private unnamed_addr constant [32 x i8] c"../openssl/crypto/x509/v3_san.c\00", align 1
@__func__.v2i_issuer_alt = private unnamed_addr constant [15 x i8] c"v2i_issuer_alt\00", align 1
@.str.37 = private unnamed_addr constant [7 x i8] c"issuer\00", align 1
@.str.38 = private unnamed_addr constant [5 x i8] c"copy\00", align 1
@__func__.copy_issuer = private unnamed_addr constant [12 x i8] c"copy_issuer\00", align 1

; Function Attrs: inlinehint nounwind uwtable
define internal ptr @ossl_check_const_GENERAL_NAME_sk_type(ptr noundef %0) #3 {
  %2 = alloca ptr, align 8
  store ptr %0, ptr %2, align 8, !tbaa !8
  %3 = load ptr, ptr %2, align 8, !tbaa !8
  ret ptr %3
}

; Function Attrs: inlinehint nounwind uwtable
define internal ptr @ossl_check_GENERAL_NAME_freefunc_type(ptr noundef %0) #3 {
  %2 = alloca ptr, align 8
  store ptr %0, ptr %2, align 8, !tbaa !20
  %3 = load ptr, ptr %2, align 8, !tbaa !20
  ret ptr %3
}

; Function Attrs: inlinehint nounwind uwtable
define internal ptr @ossl_check_GENERAL_NAME_type(ptr noundef %0) #3 {
  %2 = alloca ptr, align 8
  store ptr %0, ptr %2, align 8, !tbaa !14
  %3 = load ptr, ptr %2, align 8, !tbaa !14
  ret ptr %3
}

; Function Attrs: inlinehint nounwind uwtable
define internal ptr @ossl_check_GENERAL_NAME_sk_type(ptr noundef %0) #3 {
  %2 = alloca ptr, align 8
  store ptr %0, ptr %2, align 8, !tbaa !8
  %3 = load ptr, ptr %2, align 8, !tbaa !8
  ret ptr %3
}

; Function Attrs: nounwind uwtable
define ptr @v2i_GENERAL_NAME(ptr noundef %0, ptr noundef %1, ptr noundef %2) #1 {
  %4 = alloca ptr, align 8
  %5 = alloca ptr, align 8
  %6 = alloca ptr, align 8
  store ptr %0, ptr %4, align 8, !tbaa !3
  store ptr %1, ptr %5, align 8, !tbaa !18
  store ptr %2, ptr %6, align 8, !tbaa !20
  %7 = load ptr, ptr %4, align 8, !tbaa !3
  %8 = load ptr, ptr %5, align 8, !tbaa !18
  %9 = load ptr, ptr %6, align 8, !tbaa !20
  %10 = call ptr @v2i_GENERAL_NAME_ex(ptr noundef null, ptr noundef %7, ptr noundef %8, ptr noundef %9, i32 noundef 0)
  ret ptr %10
}

; Function Attrs: nounwind uwtable
define internal i32 @copy_issuer(ptr noundef %0, ptr noundef %1) #1 {
  %3 = alloca i32, align 4
  %4 = alloca ptr, align 8
  %5 = alloca ptr, align 8
  %6 = alloca ptr, align 8
  %7 = alloca ptr, align 8
  %8 = alloca ptr, align 8
  %9 = alloca i32, align 4
  %10 = alloca i32, align 4
  %11 = alloca i32, align 4
  store ptr %0, ptr %4, align 8, !tbaa !18
  store ptr %1, ptr %5, align 8, !tbaa !8
  call void @llvm.lifetime.start.p0(i64 8, ptr %6) #5
  store ptr null, ptr %6, align 8, !tbaa !8
  call void @llvm.lifetime.start.p0(i64 8, ptr %7) #5
  call void @llvm.lifetime.start.p0(i64 8, ptr %8) #5
  call void @llvm.lifetime.start.p0(i64 4, ptr %9) #5
  call void @llvm.lifetime.start.p0(i64 4, ptr %10) #5
  %12 = load ptr, ptr %4, align 8, !tbaa !18
  %13 = icmp ne ptr %12, null
  br i1 %13, label %14, label %21

14:                                               ; preds = %2
  %15 = load ptr, ptr %4, align 8, !tbaa !18
  %16 = getelementptr inbounds nuw %struct.v3_ext_ctx, ptr %15, i32 0, i32 0
  %17 = load i32, ptr %16, align 8, !tbaa !48
  %18 = and i32 %17, 1
  %19 = icmp ne i32 %18, 0
  br i1 %19, label %20, label %21

20:                                               ; preds = %14
  store i32 1, ptr %3, align 4
  store i32 1, ptr %11, align 4
  br label %84

21:                                               ; preds = %14, %2
  %22 = load ptr, ptr %4, align 8, !tbaa !18
  %23 = icmp ne ptr %22, null
  br i1 %23, label %24, label %29

24:                                               ; preds = %21
  %25 = load ptr, ptr %4, align 8, !tbaa !18
  %26 = getelementptr inbounds nuw %struct.v3_ext_ctx, ptr %25, i32 0, i32 1
  %27 = load ptr, ptr %26, align 8, !tbaa !55
  %28 = icmp ne ptr %27, null
  br i1 %28, label %30, label %29

29:                                               ; preds = %24, %21
  call void @ERR_new()
  call void @ERR_set_debug(ptr noundef @.str.15, i32 noundef 346, ptr noundef @__func__.copy_issuer)
  call void (i32, i32, ptr, ...) @ERR_set_error(i32 noundef 34, i32 noundef 127, ptr noundef null)
  br label %81

30:                                               ; preds = %24
  %31 = load ptr, ptr %4, align 8, !tbaa !18
  %32 = getelementptr inbounds nuw %struct.v3_ext_ctx, ptr %31, i32 0, i32 1
  %33 = load ptr, ptr %32, align 8, !tbaa !55
  %34 = call i32 @X509_get_ext_by_NID(ptr noundef %33, i32 noundef 85, i32 noundef -1)
  store i32 %34, ptr %9, align 4, !tbaa !12
  %35 = load i32, ptr %9, align 4, !tbaa !12
  %36 = icmp slt i32 %35, 0
  br i1 %36, label %37, label %38

37:                                               ; preds = %30
  store i32 1, ptr %3, align 4
  store i32 1, ptr %11, align 4
  br label %84

38:                                               ; preds = %30
  %39 = load ptr, ptr %4, align 8, !tbaa !18
  %40 = getelementptr inbounds nuw %struct.v3_ext_ctx, ptr %39, i32 0, i32 1
  %41 = load ptr, ptr %40, align 8, !tbaa !55
  %42 = load i32, ptr %9, align 4, !tbaa !12
  %43 = call ptr @X509_get_ext(ptr noundef %41, i32 noundef %42)
  store ptr %43, ptr %8, align 8, !tbaa !56
  %44 = icmp eq ptr %43, null
  br i1 %44, label %49, label %45

45:                                               ; preds = %38
  %46 = load ptr, ptr %8, align 8, !tbaa !56
  %47 = call ptr @X509V3_EXT_d2i(ptr noundef %46)
  store ptr %47, ptr %6, align 8, !tbaa !8
  %48 = icmp eq ptr %47, null
  br i1 %48, label %49, label %50

49:                                               ; preds = %45, %38
  call void @ERR_new()
  call void @ERR_set_debug(ptr noundef @.str.15, i32 noundef 354, ptr noundef @__func__.copy_issuer)
  call void (i32, i32, ptr, ...) @ERR_set_error(i32 noundef 34, i32 noundef 126, ptr noundef null)
  br label %81

50:                                               ; preds = %45
  %51 = load ptr, ptr %6, align 8, !tbaa !8
  %52 = call ptr @ossl_check_const_GENERAL_NAME_sk_type(ptr noundef %51)
  %53 = call i32 @OPENSSL_sk_num(ptr noundef %52)
  store i32 %53, ptr %10, align 4, !tbaa !12
  %54 = load ptr, ptr %5, align 8, !tbaa !8
  %55 = call ptr @ossl_check_GENERAL_NAME_sk_type(ptr noundef %54)
  %56 = load i32, ptr %10, align 4, !tbaa !12
  %57 = call i32 @OPENSSL_sk_reserve(ptr noundef %55, i32 noundef %56)
  %58 = icmp ne i32 %57, 0
  br i1 %58, label %60, label %59

59:                                               ; preds = %50
  call void @ERR_new()
  call void @ERR_set_debug(ptr noundef @.str.15, i32 noundef 360, ptr noundef @__func__.copy_issuer)
  call void (i32, i32, ptr, ...) @ERR_set_error(i32 noundef 34, i32 noundef 524303, ptr noundef null)
  br label %81

60:                                               ; preds = %50
  store i32 0, ptr %9, align 4, !tbaa !12
  br label %61

61:                                               ; preds = %75, %60
  %62 = load i32, ptr %9, align 4, !tbaa !12
  %63 = load i32, ptr %10, align 4, !tbaa !12
  %64 = icmp slt i32 %62, %63
  br i1 %64, label %65, label %78

65:                                               ; preds = %61
  %66 = load ptr, ptr %6, align 8, !tbaa !8
  %67 = call ptr @ossl_check_const_GENERAL_NAME_sk_type(ptr noundef %66)
  %68 = load i32, ptr %9, align 4, !tbaa !12
  %69 = call ptr @OPENSSL_sk_value(ptr noundef %67, i32 noundef %68)
  store ptr %69, ptr %7, align 8, !tbaa !14
  %70 = load ptr, ptr %5, align 8, !tbaa !8
  %71 = call ptr @ossl_check_GENERAL_NAME_sk_type(ptr noundef %70)
  %72 = load ptr, ptr %7, align 8, !tbaa !14
  %73 = call ptr @ossl_check_GENERAL_NAME_type(ptr noundef %72)
  %74 = call i32 @OPENSSL_sk_push(ptr noundef %71, ptr noundef %73)
  br label %75

75:                                               ; preds = %65
  %76 = load i32, ptr %9, align 4, !tbaa !12
  %77 = add nsw i32 %76, 1
  store i32 %77, ptr %9, align 4, !tbaa !12
  br label %61, !llvm.loop !58

78:                                               ; preds = %61
  %79 = load ptr, ptr %6, align 8, !tbaa !8
  %80 = call ptr @ossl_check_GENERAL_NAME_sk_type(ptr noundef %79)
  call void @OPENSSL_sk_free(ptr noundef %80)
  store i32 1, ptr %3, align 4
  store i32 1, ptr %11, align 4
  br label %84

81:                                               ; preds = %59, %49, %29
  %82 = load ptr, ptr %6, align 8, !tbaa !8
  %83 = call ptr @ossl_check_GENERAL_NAME_sk_type(ptr noundef %82)
  call void @OPENSSL_sk_free(ptr noundef %83)
  store i32 0, ptr %3, align 4
  store i32 1, ptr %11, align 4
  br label %84

84:                                               ; preds = %81, %78, %37, %20
  call void @llvm.lifetime.end.p0(i64 4, ptr %10) #5
  call void @llvm.lifetime.end.p0(i64 4, ptr %9) #5
  call void @llvm.lifetime.end.p0(i64 8, ptr %8) #5
  call void @llvm.lifetime.end.p0(i64 8, ptr %7) #5
  call void @llvm.lifetime.end.p0(i64 8, ptr %6) #5
  %85 = load i32, ptr %3, align 4
  ret i32 %85
}

; Function Attrs: inlinehint nounwind uwtable
define internal ptr @ossl_check_GENERAL_NAME_compfunc_type(ptr noundef %0) #3 {
  %2 = alloca ptr, align 8
  store ptr %0, ptr %2, align 8, !tbaa !20
  %3 = load ptr, ptr %2, align 8, !tbaa !20
  ret ptr %3
}

; Function Attrs: inlinehint nounwind uwtable
define internal ptr @ossl_check_const_CONF_VALUE_sk_type(ptr noundef %0) #3 {
  %2 = alloca ptr, align 8
  store ptr %0, ptr %2, align 8, !tbaa !10
  %3 = load ptr, ptr %2, align 8, !tbaa !10
  ret ptr %3
}

; Function Attrs: nounwind uwtable
define internal ptr @v2i_issuer_alt(ptr noundef %0, ptr noundef %1, ptr noundef %2) #1 {
  %4 = alloca ptr, align 8
  %5 = alloca ptr, align 8
  %6 = alloca ptr, align 8
  %7 = alloca ptr, align 8
  %8 = alloca i32, align 4
  %9 = alloca ptr, align 8
  %10 = alloca i32, align 4
  %11 = alloca i32, align 4
  %12 = alloca ptr, align 8
  %13 = alloca ptr, align 8
  store ptr %0, ptr %5, align 8, !tbaa !3
  store ptr %1, ptr %6, align 8, !tbaa !18
  store ptr %2, ptr %7, align 8, !tbaa !10
  call void @llvm.lifetime.start.p0(i64 4, ptr %8) #5
  %14 = load ptr, ptr %7, align 8, !tbaa !10
  %15 = call ptr @ossl_check_const_CONF_VALUE_sk_type(ptr noundef %14)
  %16 = call i32 @OPENSSL_sk_num(ptr noundef %15)
  store i32 %16, ptr %8, align 4, !tbaa !12
  call void @llvm.lifetime.start.p0(i64 8, ptr %9) #5
  %17 = call ptr @ossl_check_GENERAL_NAME_compfunc_type(ptr noundef null)
  %18 = load i32, ptr %8, align 4, !tbaa !12
  %19 = call ptr @OPENSSL_sk_new_reserve(ptr noundef %17, i32 noundef %18)
  store ptr %19, ptr %9, align 8, !tbaa !8
  call void @llvm.lifetime.start.p0(i64 4, ptr %10) #5
  %20 = load ptr, ptr %9, align 8, !tbaa !8
  %21 = icmp eq ptr %20, null
  br i1 %21, label %22, label %23

22:                                               ; preds = %3
  call void @ERR_new()
  call void @ERR_set_debug(ptr noundef @.str.15, i32 noundef 310, ptr noundef @__func__.v2i_issuer_alt)
  call void (i32, i32, ptr, ...) @ERR_set_error(i32 noundef 34, i32 noundef 524303, ptr noundef null)
  store ptr null, ptr %4, align 8
  store i32 1, ptr %11, align 4
  br label %86

23:                                               ; preds = %3
  store i32 0, ptr %10, align 4, !tbaa !12
  br label %24

24:                                               ; preds = %77, %23
  %25 = load i32, ptr %10, align 4, !tbaa !12
  %26 = load i32, ptr %8, align 4, !tbaa !12
  %27 = icmp slt i32 %25, %26
  br i1 %27, label %28, label %80

28:                                               ; preds = %24
  call void @llvm.lifetime.start.p0(i64 8, ptr %12) #5
  %29 = load ptr, ptr %7, align 8, !tbaa !10
  %30 = call ptr @ossl_check_const_CONF_VALUE_sk_type(ptr noundef %29)
  %31 = load i32, ptr %10, align 4, !tbaa !12
  %32 = call ptr @OPENSSL_sk_value(ptr noundef %30, i32 noundef %31)
  store ptr %32, ptr %12, align 8, !tbaa !20
  %33 = load ptr, ptr %12, align 8, !tbaa !20
  %34 = getelementptr inbounds nuw %struct.CONF_VALUE, ptr %33, i32 0, i32 1
  %35 = load ptr, ptr %34, align 8, !tbaa !21
  %36 = call i32 @ossl_v3_name_cmp(ptr noundef %35, ptr noundef @.str.37)
  %37 = icmp ne i32 %36, 0
  br i1 %37, label %56, label %38

38:                                               ; preds = %28
  %39 = load ptr, ptr %12, align 8, !tbaa !20
  %40 = getelementptr inbounds nuw %struct.CONF_VALUE, ptr %39, i32 0, i32 2
  %41 = load ptr, ptr %40, align 8, !tbaa !24
  %42 = icmp ne ptr %41, null
  br i1 %42, label %43, label %56

43:                                               ; preds = %38
  %44 = load ptr, ptr %12, align 8, !tbaa !20
  %45 = getelementptr inbounds nuw %struct.CONF_VALUE, ptr %44, i32 0, i32 2
  %46 = load ptr, ptr %45, align 8, !tbaa !24
  %47 = call i32 @strcmp(ptr noundef %46, ptr noundef @.str.38) #6
  %48 = icmp eq i32 %47, 0
  br i1 %48, label %49, label %56

49:                                               ; preds = %43
  %50 = load ptr, ptr %6, align 8, !tbaa !18
  %51 = load ptr, ptr %9, align 8, !tbaa !8
  %52 = call i32 @copy_issuer(ptr noundef %50, ptr noundef %51)
  %53 = icmp ne i32 %52, 0
  br i1 %53, label %55, label %54

54:                                               ; preds = %49
  store i32 5, ptr %11, align 4
  br label %74

55:                                               ; preds = %49
  br label %73

56:                                               ; preds = %43, %38, %28
  call void @llvm.lifetime.start.p0(i64 8, ptr %13) #5
  %57 = load ptr, ptr %5, align 8, !tbaa !3
  %58 = load ptr, ptr %6, align 8, !tbaa !18
  %59 = load ptr, ptr %12, align 8, !tbaa !20
  %60 = call ptr @v2i_GENERAL_NAME(ptr noundef %57, ptr noundef %58, ptr noundef %59)
  store ptr %60, ptr %13, align 8, !tbaa !14
  %61 = load ptr, ptr %13, align 8, !tbaa !14
  %62 = icmp eq ptr %61, null
  br i1 %62, label %63, label %64

63:                                               ; preds = %56
  store i32 5, ptr %11, align 4
  br label %70

64:                                               ; preds = %56
  %65 = load ptr, ptr %9, align 8, !tbaa !8
  %66 = call ptr @ossl_check_GENERAL_NAME_sk_type(ptr noundef %65)
  %67 = load ptr, ptr %13, align 8, !tbaa !14
  %68 = call ptr @ossl_check_GENERAL_NAME_type(ptr noundef %67)
  %69 = call i32 @OPENSSL_sk_push(ptr noundef %66, ptr noundef %68)
  store i32 0, ptr %11, align 4
  br label %70

70:                                               ; preds = %63, %64
  call void @llvm.lifetime.end.p0(i64 8, ptr %13) #5
  %71 = load i32, ptr %11, align 4
  switch i32 %71, label %74 [
    i32 0, label %72
  ]

72:                                               ; preds = %70
  br label %73

73:                                               ; preds = %72, %55
  store i32 0, ptr %11, align 4
  br label %74

74:                                               ; preds = %54, %73, %70
  call void @llvm.lifetime.end.p0(i64 8, ptr %12) #5
  %75 = load i32, ptr %11, align 4
  switch i32 %75, label %86 [
    i32 0, label %76
    i32 5, label %82
  ]

76:                                               ; preds = %74
  br label %77

77:                                               ; preds = %76
  %78 = load i32, ptr %10, align 4, !tbaa !12
  %79 = add nsw i32 %78, 1
  store i32 %79, ptr %10, align 4, !tbaa !12
  br label %24, !llvm.loop !26

80:                                               ; preds = %24
  %81 = load ptr, ptr %9, align 8, !tbaa !8
  store ptr %81, ptr %4, align 8
  store i32 1, ptr %11, align 4
  br label %86

82:                                               ; preds = %74
  %83 = load ptr, ptr %9, align 8, !tbaa !8
  %84 = call ptr @ossl_check_GENERAL_NAME_sk_type(ptr noundef %83)
  %85 = call ptr @ossl_check_GENERAL_NAME_freefunc_type(ptr noundef @GENERAL_NAME_free)
  call void @OPENSSL_sk_pop_free(ptr noundef %84, ptr noundef %85)
  store ptr null, ptr %4, align 8
  store i32 1, ptr %11, align 4
  br label %86

86:                                               ; preds = %82, %80, %74, %22
  call void @llvm.lifetime.end.p0(i64 4, ptr %10) #5
  call void @llvm.lifetime.end.p0(i64 8, ptr %9) #5
  call void @llvm.lifetime.end.p0(i64 4, ptr %8) #5
  %87 = load ptr, ptr %4, align 8
  ret ptr %87
}