; Function Attrs: nounwind uwtable
define internal ptr @v2i_issuer_alt(ptr noundef readnone captures(none) %0, ptr noundef %1, ptr noundef %2) #1 {
  %4 = tail call i32 @OPENSSL_sk_num(ptr noundef %2) #4
  %5 = tail call ptr @OPENSSL_sk_new_reserve(ptr noundef null, i32 noundef %4) #4
  %6 = icmp eq ptr %5, null
  br i1 %6, label %23, label %.preheader

.preheader:                                       ; preds = %3
  %7 = icmp sgt i32 %4, 0
  br i1 %7, label %.lr.ph, label %.loopexit

.lr.ph:                                           ; preds = %.preheader
  %.not.i = icmp eq ptr %1, null
  %8 = getelementptr inbounds nuw i8, ptr %1, i64 8
  br i1 %.not.i, label %.lr.ph.split.us, label %.lr.ph.split

.lr.ph.split.us:                                  ; preds = %.lr.ph, %copy_issuer.exit.thread.us
  %.02341.us = phi i32 [ %22, %copy_issuer.exit.thread.us ], [ 0, %.lr.ph ]
  %9 = tail call ptr @OPENSSL_sk_value(ptr noundef %2, i32 noundef %.02341.us) #4
  %10 = getelementptr inbounds nuw i8, ptr %9, i64 8
  %11 = load ptr, ptr %10, align 8, !tbaa !5
  %12 = tail call i32 @ossl_v3_name_cmp(ptr noundef %11, ptr noundef nonnull @.str.37) #4
  %.not.us = icmp eq i32 %12, 0
  br i1 %.not.us, label %13, label %19

13:                                               ; preds = %.lr.ph.split.us
  %14 = getelementptr inbounds nuw i8, ptr %9, i64 16
  %15 = load ptr, ptr %14, align 8, !tbaa !11
  %.not28.us = icmp eq ptr %15, null
  br i1 %.not28.us, label %19, label %16

16:                                               ; preds = %13
  %17 = tail call i32 @strcmp(ptr noundef nonnull dereferenceable(1) %15, ptr noundef nonnull dereferenceable(5) @.str.38) #5
  %18 = icmp eq i32 %17, 0
  br i1 %18, label %copy_issuer.exit, label %19

19:                                               ; preds = %16, %13, %.lr.ph.split.us
  %20 = tail call ptr @v2i_GENERAL_NAME_ex(ptr noundef null, ptr noundef readnone %0, ptr noundef null, ptr noundef nonnull readonly %9, i32 noundef 0)
  %.not30.us = icmp eq ptr %20, null
  br i1 %.not30.us, label %.thread, label %copy_issuer.exit.thread.us

copy_issuer.exit.thread.us:                       ; preds = %19
  %21 = tail call i32 @OPENSSL_sk_push(ptr noundef nonnull %5, ptr noundef nonnull %20) #4
  %22 = add nuw nsw i32 %.02341.us, 1
  %exitcond47.not = icmp eq i32 %22, %4
  br i1 %exitcond47.not, label %.loopexit, label %.lr.ph.split.us, !llvm.loop !13

23:                                               ; preds = %3
  tail call void @ERR_new() #4
  tail call void @ERR_set_debug(ptr noundef nonnull @.str.15, i32 noundef 310, ptr noundef nonnull @__func__.v2i_issuer_alt) #4
  tail call void (i32, i32, ptr, ...) @ERR_set_error(i32 noundef 34, i32 noundef 524303, ptr noundef null) #4
  br label %.loopexit

.lr.ph.split:                                     ; preds = %.lr.ph, %copy_issuer.exit.thread
  %.02341 = phi i32 [ %60, %copy_issuer.exit.thread ], [ 0, %.lr.ph ]
  %24 = tail call ptr @OPENSSL_sk_value(ptr noundef %2, i32 noundef %.02341) #4
  %25 = getelementptr inbounds nuw i8, ptr %24, i64 8
  %26 = load ptr, ptr %25, align 8, !tbaa !5
  %27 = tail call i32 @ossl_v3_name_cmp(ptr noundef %26, ptr noundef nonnull @.str.37) #4
  %.not = icmp eq i32 %27, 0
  br i1 %.not, label %28, label %56

28:                                               ; preds = %.lr.ph.split
  %29 = getelementptr inbounds nuw i8, ptr %24, i64 16
  %30 = load ptr, ptr %29, align 8, !tbaa !11
  %.not28 = icmp eq ptr %30, null
  br i1 %.not28, label %56, label %31

31:                                               ; preds = %28
  %32 = tail call i32 @strcmp(ptr noundef nonnull dereferenceable(1) %30, ptr noundef nonnull dereferenceable(5) @.str.38) #5
  %33 = icmp eq i32 %32, 0
  br i1 %33, label %34, label %56

34:                                               ; preds = %31
  %35 = load i32, ptr %1, align 8, !tbaa !14
  %36 = and i32 %35, 1
  %.not30.i = icmp eq i32 %36, 0
  br i1 %.not30.i, label %37, label %copy_issuer.exit.thread

37:                                               ; preds = %34
  %38 = load ptr, ptr %8, align 8, !tbaa !22
  %.not31.i = icmp eq ptr %38, null
  br i1 %.not31.i, label %copy_issuer.exit, label %39

39:                                               ; preds = %37
  %40 = tail call i32 @X509_get_ext_by_NID(ptr noundef nonnull %38, i32 noundef 85, i32 noundef -1) #4
  %41 = icmp slt i32 %40, 0
  br i1 %41, label %copy_issuer.exit.thread, label %42

42:                                               ; preds = %39
  %43 = load ptr, ptr %8, align 8, !tbaa !22
  %44 = tail call ptr @X509_get_ext(ptr noundef %43, i32 noundef %40) #4
  %45 = icmp eq ptr %44, null
  br i1 %45, label %copy_issuer.exit, label %46

46:                                               ; preds = %42
  %47 = tail call ptr @X509V3_EXT_d2i(ptr noundef nonnull %44) #4
  %48 = icmp eq ptr %47, null
  br i1 %48, label %copy_issuer.exit, label %49

49:                                               ; preds = %46
  %50 = tail call i32 @OPENSSL_sk_num(ptr noundef nonnull %47) #4
  %51 = tail call i32 @OPENSSL_sk_reserve(ptr noundef nonnull %5, i32 noundef %50) #4
  %.not32.i = icmp eq i32 %51, 0
  br i1 %.not32.i, label %copy_issuer.exit, label %.preheader.i

.preheader.i:                                     ; preds = %49
  %52 = icmp sgt i32 %50, 0
  br i1 %52, label %.lr.ph.i, label %copy_issuer.exit.thread34

.lr.ph.i:                                         ; preds = %.preheader.i, %.lr.ph.i
  %.02133.i = phi i32 [ %55, %.lr.ph.i ], [ 0, %.preheader.i ]
  %53 = tail call ptr @OPENSSL_sk_value(ptr noundef nonnull %47, i32 noundef %.02133.i) #4
  %54 = tail call i32 @OPENSSL_sk_push(ptr noundef nonnull %5, ptr noundef %53) #4
  %55 = add nuw nsw i32 %.02133.i, 1
  %exitcond.not.i = icmp eq i32 %55, %50
  br i1 %exitcond.not.i, label %copy_issuer.exit.thread34, label %.lr.ph.i, !llvm.loop !23

copy_issuer.exit.thread34:                        ; preds = %.lr.ph.i, %.preheader.i
  tail call void @OPENSSL_sk_free(ptr noundef nonnull %47) #4
  br label %copy_issuer.exit.thread

copy_issuer.exit:                                 ; preds = %49, %46, %42, %37, %16
  %.us-phi = phi i32 [ 346, %16 ], [ 346, %37 ], [ 354, %46 ], [ 354, %42 ], [ 360, %49 ]
  %.us-phi42 = phi i32 [ 127, %16 ], [ 127, %37 ], [ 126, %46 ], [ 126, %42 ], [ 524303, %49 ]
  %.us-phi43 = phi ptr [ null, %16 ], [ null, %37 ], [ null, %46 ], [ null, %42 ], [ %47, %49 ]
  tail call void @ERR_new() #4
  tail call void @ERR_set_debug(ptr noundef nonnull @.str.15, i32 noundef %.us-phi, ptr noundef nonnull @__func__.copy_issuer) #4
  tail call void (i32, i32, ptr, ...) @ERR_set_error(i32 noundef 34, i32 noundef %.us-phi42, ptr noundef null) #4
  tail call void @OPENSSL_sk_free(ptr noundef %.us-phi43) #4
  br label %.thread

56:                                               ; preds = %31, %28, %.lr.ph.split
  %57 = tail call ptr @v2i_GENERAL_NAME_ex(ptr noundef null, ptr noundef readnone %0, ptr noundef nonnull %1, ptr noundef nonnull readonly %24, i32 noundef 0)
  %.not30 = icmp eq ptr %57, null
  br i1 %.not30, label %.thread, label %58

58:                                               ; preds = %56
  %59 = tail call i32 @OPENSSL_sk_push(ptr noundef nonnull %5, ptr noundef nonnull %57) #4
  br label %copy_issuer.exit.thread

copy_issuer.exit.thread:                          ; preds = %39, %34, %58, %copy_issuer.exit.thread34
  %60 = add nuw nsw i32 %.02341, 1
  %exitcond.not = icmp eq i32 %60, %4
  br i1 %exitcond.not, label %.loopexit, label %.lr.ph.split, !llvm.loop !13

.thread:                                          ; preds = %56, %19, %copy_issuer.exit
  tail call void @OPENSSL_sk_pop_free(ptr noundef nonnull %5, ptr noundef nonnull @GENERAL_NAME_free) #4
  br label %.loopexit

.loopexit:                                        ; preds = %copy_issuer.exit.thread, %copy_issuer.exit.thread.us, %.preheader, %.thread, %23
  %.0 = phi ptr [ null, %23 ], [ null, %.thread ], [ %5, %.preheader ], [ %5, %copy_issuer.exit.thread.us ], [ %5, %copy_issuer.exit.thread ]
  ret ptr %.0
}